; Function Attrs: nounwind uwtable
define ptr @l_String_foldlAux___at_System_Uri_escapeUri___spec__1(ptr noundef %0, ptr noundef %1, ptr noundef %2, ptr noundef %3) local_unnamed_addr #0 {
  %5 = ptrtoint ptr %1 to i64
  %6 = and i64 %5, 1
  %.not38 = icmp eq i64 %6, 0
  br i1 %.not38, label %.split.us, label %.split, !prof !14

.split.us:                                        ; preds = %4, %.split.us.backedge
  %.019.us = phi ptr [ %21, %.split.us.backedge ], [ %3, %4 ]
  %.017.us = phi ptr [ %11, %.split.us.backedge ], [ %2, %4 ]
  %7 = ptrtoint ptr %.017.us to i64
  %8 = and i64 %7, 1
  %.not.us = icmp eq i64 %8, 0
  %9 = tail call zeroext i1 @lean_nat_big_lt(ptr noundef %.017.us, ptr noundef %1) #3
  br i1 %.not.us, label %lean_nat_lt.exit.thread36.us, label %lean_nat_lt.exit.us, !prof !14

lean_nat_lt.exit.us:                              ; preds = %.split.us
  br i1 %9, label %10, label %.thread

lean_nat_lt.exit.thread36.us:                     ; preds = %.split.us
  br i1 %9, label %10, label %.split45.us

10:                                               ; preds = %lean_nat_lt.exit.thread36.us, %lean_nat_lt.exit.us
  %11 = tail call ptr @lean_string_utf8_next(ptr noundef %0, ptr noundef %.017.us) #3
  %12 = tail call i32 @lean_string_utf8_get(ptr noundef %0, ptr noundef %.017.us) #3
  br i1 %.not.us, label %13, label %lean_dec.exit22.us

13:                                               ; preds = %10
  %14 = load i32, ptr %.017.us, align 4, !tbaa !4
  %15 = icmp sgt i32 %14, 1
  br i1 %15, label %18, label %16, !prof !11

16:                                               ; preds = %13
  %.not.i24.us = icmp eq i32 %14, 0
  br i1 %.not.i24.us, label %lean_dec.exit22.us, label %17

17:                                               ; preds = %16
  tail call void @lean_dec_ref_cold(ptr noundef nonnull %.017.us) #3
  br label %lean_dec.exit22.us

18:                                               ; preds = %13
  %19 = add nsw i32 %14, -1
  store i32 %19, ptr %.017.us, align 4, !tbaa !4
  br label %lean_dec.exit22.us

lean_dec.exit22.us:                               ; preds = %18, %17, %16, %10
  %20 = tail call ptr @l_System_Uri_UriEscape_uriEscapeAsciiChar(i32 noundef %12)
  %21 = tail call ptr @lean_string_append(ptr noundef %.019.us, ptr noundef %20) #3
  %22 = ptrtoint ptr %20 to i64
  %23 = and i64 %22, 1
  %.not40.us = icmp eq i64 %23, 0
  br i1 %.not40.us, label %24, label %.split.us.backedge

24:                                               ; preds = %lean_dec.exit22.us
  %25 = load i32, ptr %20, align 4, !tbaa !4
  %26 = icmp sgt i32 %25, 1
  br i1 %26, label %29, label %27, !prof !11

27:                                               ; preds = %24
  %.not.i26.us = icmp eq i32 %25, 0
  br i1 %.not.i26.us, label %.split.us.backedge, label %28

28:                                               ; preds = %27
  tail call void @lean_dec_ref_cold(ptr noundef nonnull %20) #3
  br label %.split.us.backedge

29:                                               ; preds = %24
  %30 = add nsw i32 %25, -1
  store i32 %30, ptr %20, align 4, !tbaa !4
  br label %.split.us.backedge

.split.us.backedge:                               ; preds = %29, %28, %27, %lean_dec.exit22.us
  br label %.split.us

.split:                                           ; preds = %4, %.split.backedge
  %.019 = phi ptr [ %51, %.split.backedge ], [ %3, %4 ]
  %.017 = phi ptr [ %41, %.split.backedge ], [ %2, %4 ]
  %31 = ptrtoint ptr %.017 to i64
  %32 = and i64 %31, 1
  %.not = icmp eq i64 %32, 0
  br i1 %.not, label %lean_nat_lt.exit.thread36, label %lean_nat_lt.exit.thread, !prof !14

lean_nat_lt.exit.thread:                          ; preds = %.split
  %.not39 = icmp ult ptr %.017, %1
  br i1 %.not39, label %40, label %.thread

lean_nat_lt.exit.thread36:                        ; preds = %.split
  %33 = tail call zeroext i1 @lean_nat_big_lt(ptr noundef %.017, ptr noundef %1) #3
  br i1 %33, label %40, label %.split45.us

.split45.us:                                      ; preds = %lean_nat_lt.exit.thread36, %lean_nat_lt.exit.thread36.us
  %.us-phi46 = phi ptr [ %.019.us, %lean_nat_lt.exit.thread36.us ], [ %.019, %lean_nat_lt.exit.thread36 ]
  %.us-phi47 = phi ptr [ %.017.us, %lean_nat_lt.exit.thread36.us ], [ %.017, %lean_nat_lt.exit.thread36 ]
  %34 = load i32, ptr %.us-phi47, align 4, !tbaa !4
  %35 = icmp sgt i32 %34, 1
  br i1 %35, label %36, label %38, !prof !11

36:                                               ; preds = %.split45.us
  %37 = add nsw i32 %34, -1
  store i32 %37, ptr %.us-phi47, align 4, !tbaa !4
  br label %.thread

38:                                               ; preds = %.split45.us
  %.not.i = icmp eq i32 %34, 0
  br i1 %.not.i, label %.thread, label %39

39:                                               ; preds = %38
  tail call void @lean_dec_ref_cold(ptr noundef nonnull %.us-phi47) #3
  br label %.thread

40:                                               ; preds = %lean_nat_lt.exit.thread36, %lean_nat_lt.exit.thread
  %41 = tail call ptr @lean_string_utf8_next(ptr noundef %0, ptr noundef %.017) #3
  %42 = tail call i32 @lean_string_utf8_get(ptr noundef %0, ptr noundef %.017) #3
  br i1 %.not, label %43, label %lean_dec.exit22

43:                                               ; preds = %40
  %44 = load i32, ptr %.017, align 4, !tbaa !4
  %45 = icmp sgt i32 %44, 1
  br i1 %45, label %46, label %48, !prof !11

46:                                               ; preds = %43
  %47 = add nsw i32 %44, -1
  store i32 %47, ptr %.017, align 4, !tbaa !4
  br label %lean_dec.exit22

48:                                               ; preds = %43
  %.not.i24 = icmp eq i32 %44, 0
  br i1 %.not.i24, label %lean_dec.exit22, label %49

49:                                               ; preds = %48
  tail call void @lean_dec_ref_cold(ptr noundef nonnull %.017) #3
  br label %lean_dec.exit22

lean_dec.exit22:                                  ; preds = %49, %48, %46, %40
  %50 = tail call ptr @l_System_Uri_UriEscape_uriEscapeAsciiChar(i32 noundef %42)
  %51 = tail call ptr @lean_string_append(ptr noundef %.019, ptr noundef %50) #3
  %52 = ptrtoint ptr %50 to i64
  %53 = and i64 %52, 1
  %.not40 = icmp eq i64 %53, 0
  br i1 %.not40, label %54, label %.split.backedge

.split.backedge:                                  ; preds = %lean_dec.exit22, %57, %59, %60
  br label %.split

54:                                               ; preds = %lean_dec.exit22
  %55 = load i32, ptr %50, align 4, !tbaa !4
  %56 = icmp sgt i32 %55, 1
  br i1 %56, label %57, label %59, !prof !11

57:                                               ; preds = %54
  %58 = add nsw i32 %55, -1
  store i32 %58, ptr %50, align 4, !tbaa !4
  br label %.split.backedge

59:                                               ; preds = %54
  %.not.i26 = icmp eq i32 %55, 0
  br i1 %.not.i26, label %.split.backedge, label %60

60:                                               ; preds = %59
  tail call void @lean_dec_ref_cold(ptr noundef nonnull %50) #3
  br label %.split.backedge

.thread:                                          ; preds = %lean_nat_lt.exit.thread, %lean_nat_lt.exit.us, %39, %38, %36
  %.01943 = phi ptr [ %.us-phi46, %39 ], [ %.us-phi46, %38 ], [ %.us-phi46, %36 ], [ %.019.us, %lean_nat_lt.exit.us ], [ %.019, %lean_nat_lt.exit.thread ]
  ret ptr %.01943
}